; Function Attrs: nounwind uwtable
define internal range(i32 -12, 1) i32 @subviewer1_read_header(ptr noundef %0) #1 {
  %2 = alloca i32, align 4
  %3 = alloca [4096 x i8], align 16
  %4 = alloca i32, align 4
  %5 = alloca i32, align 4
  %6 = alloca i32, align 4
  call void @llvm.lifetime.start.p0(i64 4, ptr nonnull %2) #8
  store i32 0, ptr %2, align 4, !tbaa !11
  %7 = getelementptr inbounds nuw i8, ptr %0, i64 24
  %8 = load ptr, ptr %7, align 8, !tbaa !12
  %9 = tail call ptr @avformat_new_stream(ptr noundef %0, ptr noundef null) #8
  %.not = icmp eq ptr %9, null
  br i1 %.not, label %63, label %10

10:                                               ; preds = %1
  tail call void @avpriv_set_pts_info(ptr noundef nonnull %9, i32 noundef 64, i32 noundef 1, i32 noundef 1) #8
  %11 = getelementptr inbounds nuw i8, ptr %9, i64 16
  %12 = load ptr, ptr %11, align 8, !tbaa !27
  store i32 3, ptr %12, align 8, !tbaa !34
  %13 = getelementptr inbounds nuw i8, ptr %12, i64 4
  store i32 94223, ptr %13, align 4, !tbaa !37
  %14 = getelementptr inbounds nuw i8, ptr %0, i64 32
  %15 = load ptr, ptr %14, align 8, !tbaa !38
  %16 = tail call i32 @avio_feof(ptr noundef %15) #8
  %.not3854 = icmp eq i32 %16, 0
  br i1 %.not3854, label %.lr.ph, label %.loopexit

.lr.ph:                                           ; preds = %10, %60
  %.02855 = phi ptr [ %.129, %60 ], [ null, %10 ]
  call void @llvm.lifetime.start.p0(i64 4096, ptr nonnull %3) #8
  %17 = load ptr, ptr %14, align 8, !tbaa !38
  %18 = call i32 @ff_get_line(ptr noundef %17, ptr noundef nonnull %3, i32 noundef 4096) #8
  call void @llvm.lifetime.start.p0(i64 4, ptr nonnull %4) #8
  call void @llvm.lifetime.start.p0(i64 4, ptr nonnull %5) #8
  call void @llvm.lifetime.start.p0(i64 4, ptr nonnull %6) #8
  %.not39 = icmp eq i32 %18, 0
  br i1 %.not39, label %.thread51, label %19

.thread51:                                        ; preds = %.lr.ph
  call void @llvm.lifetime.end.p0(i64 4, ptr nonnull %6) #8
  call void @llvm.lifetime.end.p0(i64 4, ptr nonnull %5) #8
  call void @llvm.lifetime.end.p0(i64 4, ptr nonnull %4) #8
  call void @llvm.lifetime.end.p0(i64 4096, ptr nonnull %3) #8
  br label %.loopexit

19:                                               ; preds = %.lr.ph
  %bcmp = call i32 @bcmp(ptr noundef nonnull dereferenceable(7) %3, ptr noundef nonnull dereferenceable(7) @.str.4, i64 7)
  %.not40 = icmp eq i32 %bcmp, 0
  br i1 %.not40, label %20, label %24

20:                                               ; preds = %19
  %21 = load ptr, ptr %14, align 8, !tbaa !38
  %22 = call i32 @ff_get_line(ptr noundef %21, ptr noundef nonnull %3, i32 noundef 4096) #8
  %23 = call i32 (ptr, ptr, ...) @__isoc99_sscanf(ptr noundef nonnull %3, ptr noundef nonnull @.str.5, ptr noundef nonnull %2) #8
  br label %24

24:                                               ; preds = %20, %19
  %25 = call i32 (ptr, ptr, ...) @__isoc99_sscanf(ptr noundef nonnull %3, ptr noundef nonnull @.str.6, ptr noundef nonnull %4, ptr noundef nonnull %5, ptr noundef nonnull %6) #8
  %26 = icmp eq i32 %25, 3
  br i1 %26, label %27, label %60

27:                                               ; preds = %24
  %28 = load ptr, ptr %14, align 8, !tbaa !38
  %29 = call i64 @avio_seek(ptr noundef %28, i64 noundef 0, i32 noundef 1) #8
  %30 = load i32, ptr %4, align 4, !tbaa !11
  %31 = sext i32 %30 to i64
  %32 = mul nsw i64 %31, 3600
  %33 = load i32, ptr %5, align 4, !tbaa !11
  %34 = sext i32 %33 to i64
  %35 = mul nsw i64 %34, 60
  %36 = add nsw i64 %35, %32
  %37 = load i32, ptr %6, align 4, !tbaa !11
  %38 = sext i32 %37 to i64
  %39 = add nsw i64 %36, %38
  %40 = load i32, ptr %2, align 4, !tbaa !11
  %41 = sext i32 %40 to i64
  %42 = add nsw i64 %39, %41
  %43 = load ptr, ptr %14, align 8, !tbaa !38
  %44 = call i32 @ff_get_line(ptr noundef %43, ptr noundef nonnull %3, i32 noundef 4096) #8
  %45 = call i64 @strcspn(ptr noundef nonnull %3, ptr noundef nonnull @.str.7) #7
  %46 = getelementptr inbounds nuw [4096 x i8], ptr %3, i64 0, i64 %45
  store i8 0, ptr %46, align 1, !tbaa !39
  %47 = load i8, ptr %3, align 16, !tbaa !39
  %.not41 = icmp eq i8 %47, 0
  br i1 %.not41, label %48, label %53

48:                                               ; preds = %27
  %.not42 = icmp eq ptr %.02855, null
  br i1 %.not42, label %60, label %49

49:                                               ; preds = %48
  %50 = getelementptr inbounds nuw i8, ptr %.02855, i64 8
  %51 = load i64, ptr %50, align 8, !tbaa !40
  %52 = sub nsw i64 %42, %51
  br label %.sink.split

53:                                               ; preds = %27
  %54 = sext i32 %44 to i64
  %55 = call ptr @ff_subtitles_queue_insert(ptr noundef %8, ptr noundef nonnull %3, i64 noundef %54, i32 noundef 0) #8
  %.not43 = icmp eq ptr %55, null
  br i1 %.not43, label %.thread48, label %56

.thread48:                                        ; preds = %53
  call void @llvm.lifetime.end.p0(i64 4, ptr nonnull %6) #8
  call void @llvm.lifetime.end.p0(i64 4, ptr nonnull %5) #8
  call void @llvm.lifetime.end.p0(i64 4, ptr nonnull %4) #8
  call void @llvm.lifetime.end.p0(i64 4096, ptr nonnull %3) #8
  br label %63

56:                                               ; preds = %53
  %57 = getelementptr inbounds nuw i8, ptr %55, i64 72
  store i64 %29, ptr %57, align 8, !tbaa !41
  %58 = getelementptr inbounds nuw i8, ptr %55, i64 8
  store i64 %42, ptr %58, align 8, !tbaa !40
  br label %.sink.split

.sink.split:                                      ; preds = %56, %49
  %.02855.sink = phi ptr [ %.02855, %49 ], [ %55, %56 ]
  %.sink = phi i64 [ %52, %49 ], [ -1, %56 ]
  %59 = getelementptr inbounds nuw i8, ptr %.02855.sink, i64 64
  store i64 %.sink, ptr %59, align 8, !tbaa !42
  br label %60

60:                                               ; preds = %.sink.split, %48, %24
  %.129 = phi ptr [ %.02855, %24 ], [ null, %48 ], [ %.02855.sink, %.sink.split ]
  call void @llvm.lifetime.end.p0(i64 4, ptr nonnull %6) #8
  call void @llvm.lifetime.end.p0(i64 4, ptr nonnull %5) #8
  call void @llvm.lifetime.end.p0(i64 4, ptr nonnull %4) #8
  call void @llvm.lifetime.end.p0(i64 4096, ptr nonnull %3) #8
  %61 = load ptr, ptr %14, align 8, !tbaa !38
  %62 = call i32 @avio_feof(ptr noundef %61) #8
  %.not38 = icmp eq i32 %62, 0
  br i1 %.not38, label %.lr.ph, label %.loopexit

.loopexit:                                        ; preds = %60, %10, %.thread51
  call void @ff_subtitles_queue_finalize(ptr noundef nonnull %0, ptr noundef %8) #8
  br label %63

63:                                               ; preds = %.thread48, %1, %.loopexit
  %.0 = phi i32 [ 0, %.loopexit ], [ -12, %1 ], [ -12, %.thread48 ]
  call void @llvm.lifetime.end.p0(i64 4, ptr nonnull %2) #8
  ret i32 %.0
}